; Function Attrs: mustprogress uwtable
define dso_local noundef zeroext i1 @_ZNK8Variable8is_constEv(ptr noundef nonnull align 8 dereferenceable(200) %0) local_unnamed_addr #5 align 2 {
  %2 = getelementptr inbounds nuw i8, ptr %0, i64 104
  %3 = tail call noundef zeroext i1 @_ZNK12CVQualifiers20is_const_after_derefEi(ptr noundef nonnull align 8 dereferenceable(96) %2, i32 noundef 0)
  br i1 %3, label %_ZNK8Variable20is_const_after_derefEi.exit, label %4

4:                                                ; preds = %1
  %5 = getelementptr inbounds nuw i8, ptr %0, i64 64
  %6 = load ptr, ptr %5, align 8, !tbaa !39
  %.not.i = icmp eq ptr %6, null
  br i1 %.not.i, label %_ZNK8Variable20is_const_after_derefEi.exit, label %.preheader.i

.preheader.i:                                     ; preds = %4
  %7 = tail call noundef zeroext i1 @_ZNK4Type21is_const_struct_unionEv(ptr noundef nonnull align 8 dereferenceable(136) %6)
  br label %_ZNK8Variable20is_const_after_derefEi.exit

_ZNK8Variable20is_const_after_derefEi.exit:       ; preds = %1, %4, %.preheader.i
  %.09.i = phi i1 [ %7, %.preheader.i ], [ true, %1 ], [ false, %4 ]
  ret i1 %.09.i
}